target datalayout = "e-m:e-p270:32:32-p271:32:32-p272:64:64-i64:64-i128:128-f80:128-n8:16:32:64-S128"
target triple = "x86_64-pc-linux-gnu"

@hf_reload_chordroutequeryans = internal global i32 0, align 4
@hf_reload_chordroutequeryans_next_peer = internal global i32 0, align 4
@ett_reload_chordroutequeryans = internal global i32 0, align 4

; Function Attrs: null_pointer_is_valid sspstrong uwtable
define internal i32 @dissect_chordroutequeryans(ptr noundef %0, ptr noundef %1, ptr noundef %2, i16 noundef zeroext %3, i16 noundef zeroext %4) #0 {
  %6 = alloca ptr, align 8
  %7 = alloca ptr, align 8
  %8 = alloca ptr, align 8
  %9 = alloca i16, align 2
  %10 = alloca i16, align 2
  %11 = alloca ptr, align 8
  %12 = alloca ptr, align 8
  store ptr %0, ptr %6, align 8
  store ptr %1, ptr %7, align 8
  store ptr %2, ptr %8, align 8
  store i16 %3, ptr %9, align 2
  store i16 %4, ptr %10, align 2
  call void @llvm.lifetime.start.p0(i64 8, ptr %11) #8
  call void @llvm.lifetime.start.p0(i64 8, ptr %12) #8
  %13 = load ptr, ptr %8, align 8
  %14 = load i32, ptr @hf_reload_chordroutequeryans, align 4
  %15 = load ptr, ptr %6, align 8
  %16 = load i16, ptr %9, align 2
  %17 = zext i16 %16 to i32
  %18 = load i16, ptr %10, align 2
  %19 = zext i16 %18 to i32
  %20 = call ptr @proto_tree_add_item(ptr noundef %13, i32 noundef %14, ptr noundef %15, i32 noundef %17, i32 noundef %19, i32 noundef 0)
  store ptr %20, ptr %11, align 8
  %21 = load ptr, ptr %11, align 8
  %22 = load i32, ptr @ett_reload_chordroutequeryans, align 4
  %23 = call ptr @proto_item_add_subtree(ptr noundef %21, i32 noundef %22)
  store ptr %23, ptr %12, align 8
  %24 = load i32, ptr @hf_reload_chordroutequeryans_next_peer, align 4
  %25 = load ptr, ptr %6, align 8
  %26 = load ptr, ptr %7, align 8
  %27 = load ptr, ptr %12, align 8
  %28 = load i16, ptr %9, align 2
  %29 = load i16, ptr %10, align 2
  %30 = call i32 @dissect_nodeid(i32 noundef %24, ptr noundef %25, ptr noundef %26, ptr noundef %27, i16 noundef zeroext %28, i16 noundef zeroext %29)
  %31 = load i16, ptr %10, align 2
  %32 = zext i16 %31 to i32
  call void @llvm.lifetime.end.p0(i64 8, ptr %12) #8
  call void @llvm.lifetime.end.p0(i64 8, ptr %11) #8
  ret i32 %32
}